target datalayout = "e-m:e-p270:32:32-p271:32:32-p272:64:64-i64:64-i128:128-f80:128-n8:16:32:64-S128"
target triple = "x86_64-unknown-linux-gnu"

%"class.google::protobuf::internal::SymbolBase" = type { i8 }
%"class.google::protobuf::compiler::csharp::MessageGenerator" = type <{ %"class.google::protobuf::compiler::csharp::SourceGeneratorBase", ptr, %"class.std::vector", i32, i32, i8, [7 x i8] }>
%"class.google::protobuf::compiler::csharp::SourceGeneratorBase" = type { ptr, ptr }
%"class.std::vector" = type { %"struct.std::_Vector_base" }
%"struct.std::_Vector_base" = type { %"struct.std::_Vector_base<const google::protobuf::FieldDescriptor *, std::allocator<const google::protobuf::FieldDescriptor *>>::_Vector_impl" }
%"struct.std::_Vector_base<const google::protobuf::FieldDescriptor *, std::allocator<const google::protobuf::FieldDescriptor *>>::_Vector_impl" = type { %"struct.std::_Vector_base<const google::protobuf::FieldDescriptor *, std::allocator<const google::protobuf::FieldDescriptor *>>::_Vector_impl_data" }
%"struct.std::_Vector_base<const google::protobuf::FieldDescriptor *, std::allocator<const google::protobuf::FieldDescriptor *>>::_Vector_impl_data" = type { ptr, ptr, ptr }
%"class.google::protobuf::Descriptor" = type { %"class.google::protobuf::internal::SymbolBase", i8, i16, i32, ptr, ptr, ptr, ptr, ptr, ptr, ptr, ptr, ptr, ptr, ptr, ptr, ptr, ptr, i32, i32, i32, i32, i32, i32, i32, i32 }
%"class.std::__cxx11::basic_string" = type { %"struct.std::__cxx11::basic_string<char>::_Alloc_hider", i64, %union.anon.5 }
%"struct.std::__cxx11::basic_string<char>::_Alloc_hider" = type { ptr }
%union.anon.5 = type { i64, [8 x i8] }

; Function Attrs: mustprogress nounwind uwtable
define linkonce_odr hidden noundef nonnull align 8 dereferenceable(32) ptr @_ZNK6google8protobuf10Descriptor4nameB5cxx11Ev(ptr noundef nonnull align 8 dereferenceable(152) %this) #5 comdat align 2 {
entry:
  %this.addr = alloca ptr, align 8
  store ptr %this, ptr %this.addr, align 8
  %this1 = load ptr, ptr %this.addr, align 8
  %all_names_ = getelementptr inbounds %"class.google::protobuf::Descriptor", ptr %this1, i32 0, i32 4
  %0 = load ptr, ptr %all_names_, align 8
  %arrayidx = getelementptr inbounds %"class.std::__cxx11::basic_string", ptr %0, i64 0
  ret ptr %arrayidx
}

; Function Attrs: mustprogress uwtable
define hidden void @_ZN6google8protobuf8compiler6csharp16MessageGenerator10class_nameB5cxx11Ev(ptr noalias sret(%"class.std::__cxx11::basic_string") align 8 %agg.result, ptr noundef nonnull align 8 dereferenceable(57) %this) #4 align 2 {
entry:
  %result.ptr = alloca ptr, align 8
  %this.addr = alloca ptr, align 8
  store ptr %agg.result, ptr %result.ptr, align 8
  store ptr %this, ptr %this.addr, align 8
  %this1 = load ptr, ptr %this.addr, align 8
  %descriptor_ = getelementptr inbounds %"class.google::protobuf::compiler::csharp::MessageGenerator", ptr %this1, i32 0, i32 1
  %0 = load ptr, ptr %descriptor_, align 8
  %call = call noundef nonnull align 8 dereferenceable(32) ptr @_ZNK6google8protobuf10Descriptor4nameB5cxx11Ev(ptr noundef nonnull align 8 dereferenceable(152) %0)
  call void @_ZNSt7__cxx1112basic_stringIcSt11char_traitsIcESaIcEEC1ERKS4_(ptr noundef nonnull align 8 dereferenceable(32) %agg.result, ptr noundef nonnull align 8 dereferenceable(32) %call)
  ret void
}