; Function Attrs: mustprogress uwtable
define hidden void @_ZN6google8protobuf8compiler6csharp16MessageGenerator10class_nameB5cxx11Ev(ptr noalias nonnull sret(%"class.std::__cxx11::basic_string") align 8 %agg.result, ptr nocapture noundef nonnull readonly align 8 dereferenceable(57) %this) local_unnamed_addr #4 align 2 {
entry:
  %descriptor_ = getelementptr inbounds i8, ptr %this, i64 16
  %0 = load ptr, ptr %descriptor_, align 8
  %all_names_.i = getelementptr inbounds i8, ptr %0, i64 8
  %1 = load ptr, ptr %all_names_.i, align 8
  tail call void @_ZNSt7__cxx1112basic_stringIcSt11char_traitsIcESaIcEEC1ERKS4_(ptr noundef nonnull align 8 dereferenceable(32) %agg.result, ptr noundef nonnull align 8 dereferenceable(32) %1)
  ret void
}